; Function Attrs: mustprogress nounwind uwtable
define dso_local void @_ZN17b3PgsJacobiSolverD0Ev(ptr noundef nonnull align 8 dereferenceable(448) %this) unnamed_addr #4 align 2 personality ptr @__gxx_personality_v0 {
entry:
  tail call void @_ZN17b3PgsJacobiSolverD2Ev(ptr noundef nonnull align 8 dereferenceable(448) %this) #20
  invoke void @_Z21b3AlignedFreeInternalPv(ptr noundef nonnull %this)
          to label %_ZN17b3PgsJacobiSolverdlEPv.exit unwind label %terminate.lpad.i

terminate.lpad.i:                                 ; preds = %entry
  %0 = landingpad { ptr, i32 }
          catch ptr null
  %1 = extractvalue { ptr, i32 } %0, 0
  tail call void @__clang_call_terminate(ptr %1) #19
  unreachable

_ZN17b3PgsJacobiSolverdlEPv.exit:                 ; preds = %entry
  ret void
}